target datalayout = "e-m:e-p270:32:32-p271:32:32-p272:64:64-i64:64-i128:128-f80:128-n8:16:32:64-S128"
target triple = "x86_64-pc-linux-gnu"

%struct.tls13groupselection_test_st = type { ptr, ptr, i32, ptr, i32 }

@.str = private unnamed_addr constant [43 x i8] c"../openssl/test/tls13groupselection_test.c\00", align 1
@cert = internal global ptr null, align 8
@privkey = internal global ptr null, align 8
@.str.59 = private unnamed_addr constant [35 x i8] c"current_test_vector->client_groups\00", align 1
@.str.60 = private unnamed_addr constant [43 x i8] c"strlen(current_test_vector->client_groups)\00", align 1
@.str.61 = private unnamed_addr constant [2 x i8] c"0\00", align 1
@.str.62 = private unnamed_addr constant [126 x i8] c"create_ssl_ctx_pair(((void*)0), TLS_server_method(), TLS_client_method(), 0x0301, 0, &server_ctx, &client_ctx, cert, privkey)\00", align 1
@.str.63 = private unnamed_addr constant [75 x i8] c"SSL_CTX_ctrl(client_ctx,92,0,(char *)(current_test_vector->client_groups))\00", align 1
@.str.64 = private unnamed_addr constant [91 x i8] c"create_ssl_objects(server_ctx, client_ctx, &serverssl, &clientssl, ((void*)0), ((void*)0))\00", align 1
@.str.65 = private unnamed_addr constant [70 x i8] c"SSL_ctrl(clientssl,92,0,(char *)(current_test_vector->client_groups))\00", align 1

; Function Attrs: nounwind uwtable
define internal i32 @test_invalidsyntax(ptr noundef %0, i32 noundef %1) #0 {
  %3 = alloca ptr, align 8
  %4 = alloca i32, align 4
  %5 = alloca i32, align 4
  %6 = alloca ptr, align 8
  %7 = alloca ptr, align 8
  %8 = alloca ptr, align 8
  %9 = alloca ptr, align 8
  store ptr %0, ptr %3, align 8, !tbaa !13
  store i32 %1, ptr %4, align 4, !tbaa !9
  call void @llvm.lifetime.start.p0(i64 4, ptr %5) #5
  store i32 0, ptr %5, align 4, !tbaa !9
  call void @llvm.lifetime.start.p0(i64 8, ptr %6) #5
  store ptr null, ptr %6, align 8, !tbaa !15
  call void @llvm.lifetime.start.p0(i64 8, ptr %7) #5
  store ptr null, ptr %7, align 8, !tbaa !15
  call void @llvm.lifetime.start.p0(i64 8, ptr %8) #5
  store ptr null, ptr %8, align 8, !tbaa !17
  call void @llvm.lifetime.start.p0(i64 8, ptr %9) #5
  store ptr null, ptr %9, align 8, !tbaa !17
  %10 = load ptr, ptr %3, align 8, !tbaa !13
  %11 = getelementptr inbounds nuw %struct.tls13groupselection_test_st, ptr %10, i32 0, i32 0
  %12 = load ptr, ptr %11, align 8, !tbaa !19
  %13 = call i32 @test_ptr(ptr noundef @.str, i32 noundef 370, ptr noundef @.str.59, ptr noundef %12)
  %14 = icmp ne i32 %13, 0
  br i1 %14, label %15, label %22

15:                                               ; preds = %2
  %16 = load ptr, ptr %3, align 8, !tbaa !13
  %17 = getelementptr inbounds nuw %struct.tls13groupselection_test_st, ptr %16, i32 0, i32 0
  %18 = load ptr, ptr %17, align 8, !tbaa !19
  %19 = call i64 @strlen(ptr noundef %18) #6
  %20 = call i32 @test_size_t_ne(ptr noundef @.str, i32 noundef 371, ptr noundef @.str.60, ptr noundef @.str.61, i64 noundef %19, i64 noundef 0)
  %21 = icmp ne i32 %20, 0
  br i1 %21, label %23, label %22

22:                                               ; preds = %15, %2
  br label %74

23:                                               ; preds = %15
  %24 = call ptr @TLS_server_method()
  %25 = call ptr @TLS_client_method()
  %26 = load ptr, ptr @cert, align 8, !tbaa !4
  %27 = load ptr, ptr @privkey, align 8, !tbaa !4
  %28 = call i32 @create_ssl_ctx_pair(ptr noundef null, ptr noundef %24, ptr noundef %25, i32 noundef 769, i32 noundef 0, ptr noundef %7, ptr noundef %6, ptr noundef %26, ptr noundef %27)
  %29 = icmp ne i32 %28, 0
  %30 = zext i1 %29 to i32
  %31 = call i32 @test_true(ptr noundef @.str, i32 noundef 379, ptr noundef @.str.62, i32 noundef %30)
  %32 = icmp ne i32 %31, 0
  br i1 %32, label %34, label %33

33:                                               ; preds = %23
  br label %74

34:                                               ; preds = %23
  %35 = load i32, ptr %4, align 4, !tbaa !9
  %36 = icmp eq i32 %35, 0
  br i1 %36, label %37, label %49

37:                                               ; preds = %34
  %38 = load ptr, ptr %6, align 8, !tbaa !15
  %39 = load ptr, ptr %3, align 8, !tbaa !13
  %40 = getelementptr inbounds nuw %struct.tls13groupselection_test_st, ptr %39, i32 0, i32 0
  %41 = load ptr, ptr %40, align 8, !tbaa !19
  %42 = call i64 @SSL_CTX_ctrl(ptr noundef %38, i32 noundef 92, i64 noundef 0, ptr noundef %41)
  %43 = icmp ne i64 %42, 0
  %44 = zext i1 %43 to i32
  %45 = call i32 @test_false(ptr noundef @.str, i32 noundef 384, ptr noundef @.str.63, i32 noundef %44)
  %46 = icmp ne i32 %45, 0
  br i1 %46, label %48, label %47

47:                                               ; preds = %37
  br label %74

48:                                               ; preds = %37
  br label %49

49:                                               ; preds = %48, %34
  %50 = load ptr, ptr %7, align 8, !tbaa !15
  %51 = load ptr, ptr %6, align 8, !tbaa !15
  %52 = call i32 @create_ssl_objects(ptr noundef %50, ptr noundef %51, ptr noundef %9, ptr noundef %8, ptr noundef null, ptr noundef null)
  %53 = icmp ne i32 %52, 0
  %54 = zext i1 %53 to i32
  %55 = call i32 @test_true(ptr noundef @.str, i32 noundef 388, ptr noundef @.str.64, i32 noundef %54)
  %56 = icmp ne i32 %55, 0
  br i1 %56, label %58, label %57

57:                                               ; preds = %49
  br label %74

58:                                               ; preds = %49
  %59 = load i32, ptr %4, align 4, !tbaa !9
  %60 = icmp eq i32 %59, 1
  br i1 %60, label %61, label %73

61:                                               ; preds = %58
  %62 = load ptr, ptr %8, align 8, !tbaa !17
  %63 = load ptr, ptr %3, align 8, !tbaa !13
  %64 = getelementptr inbounds nuw %struct.tls13groupselection_test_st, ptr %63, i32 0, i32 0
  %65 = load ptr, ptr %64, align 8, !tbaa !19
  %66 = call i64 @SSL_ctrl(ptr noundef %62, i32 noundef 92, i64 noundef 0, ptr noundef %65)
  %67 = icmp ne i64 %66, 0
  %68 = zext i1 %67 to i32
  %69 = call i32 @test_false(ptr noundef @.str, i32 noundef 392, ptr noundef @.str.65, i32 noundef %68)
  %70 = icmp ne i32 %69, 0
  br i1 %70, label %72, label %71

71:                                               ; preds = %61
  br label %74

72:                                               ; preds = %61
  br label %73

73:                                               ; preds = %72, %58
  store i32 1, ptr %5, align 4, !tbaa !9
  br label %74

74:                                               ; preds = %73, %71, %57, %47, %33, %22
  %75 = load ptr, ptr %9, align 8, !tbaa !17
  call void @SSL_free(ptr noundef %75)
  %76 = load ptr, ptr %8, align 8, !tbaa !17
  call void @SSL_free(ptr noundef %76)
  %77 = load ptr, ptr %7, align 8, !tbaa !15
  call void @SSL_CTX_free(ptr noundef %77)
  %78 = load ptr, ptr %6, align 8, !tbaa !15
  call void @SSL_CTX_free(ptr noundef %78)
  %79 = load i32, ptr %5, align 4, !tbaa !9
  call void @llvm.lifetime.end.p0(i64 8, ptr %9) #5
  call void @llvm.lifetime.end.p0(i64 8, ptr %8) #5
  call void @llvm.lifetime.end.p0(i64 8, ptr %7) #5
  call void @llvm.lifetime.end.p0(i64 8, ptr %6) #5
  call void @llvm.lifetime.end.p0(i64 4, ptr %5) #5
  ret i32 %79
}