; Function Attrs: nounwind uwtable
define internal fastcc range(i32 0, 2) i32 @test_invalidsyntax(ptr %.0.val, i32 noundef range(i32 0, 2) %0) unnamed_addr #0 {
  %2 = alloca ptr, align 8
  %3 = alloca ptr, align 8
  %4 = alloca ptr, align 8
  %5 = alloca ptr, align 8
  call void @llvm.lifetime.start.p0(i64 8, ptr nonnull %2) #6
  store ptr null, ptr %2, align 8, !tbaa !13
  call void @llvm.lifetime.start.p0(i64 8, ptr nonnull %3) #6
  store ptr null, ptr %3, align 8, !tbaa !13
  call void @llvm.lifetime.start.p0(i64 8, ptr nonnull %4) #6
  store ptr null, ptr %4, align 8, !tbaa !15
  call void @llvm.lifetime.start.p0(i64 8, ptr nonnull %5) #6
  store ptr null, ptr %5, align 8, !tbaa !15
  %6 = tail call i32 @test_ptr(ptr noundef nonnull @.str, i32 noundef 370, ptr noundef nonnull @.str.59, ptr noundef %.0.val) #6
  %.not = icmp eq i32 %6, 0
  br i1 %.not, label %42, label %7

7:                                                ; preds = %1
  %8 = tail call i64 @strlen(ptr noundef nonnull dereferenceable(1) %.0.val) #7
  %9 = tail call i32 @test_size_t_ne(ptr noundef nonnull @.str, i32 noundef 371, ptr noundef nonnull @.str.60, ptr noundef nonnull @.str.61, i64 noundef %8, i64 noundef 0) #6
  %.not6 = icmp eq i32 %9, 0
  br i1 %.not6, label %42, label %10

10:                                               ; preds = %7
  %11 = tail call ptr @TLS_server_method() #6
  %12 = tail call ptr @TLS_client_method() #6
  %13 = load ptr, ptr @cert, align 8, !tbaa !4
  %14 = load ptr, ptr @privkey, align 8, !tbaa !4
  %15 = call i32 @create_ssl_ctx_pair(ptr noundef null, ptr noundef %11, ptr noundef %12, i32 noundef 769, i32 noundef 0, ptr noundef nonnull %3, ptr noundef nonnull %2, ptr noundef %13, ptr noundef %14) #6
  %16 = icmp ne i32 %15, 0
  %17 = zext i1 %16 to i32
  %18 = call i32 @test_true(ptr noundef nonnull @.str, i32 noundef 379, ptr noundef nonnull @.str.62, i32 noundef %17) #6
  %.not7 = icmp eq i32 %18, 0
  br i1 %.not7, label %42, label %19

19:                                               ; preds = %10
  %20 = icmp eq i32 %0, 0
  br i1 %20, label %21, label %27

21:                                               ; preds = %19
  %22 = load ptr, ptr %2, align 8, !tbaa !13
  %23 = call i64 @SSL_CTX_ctrl(ptr noundef %22, i32 noundef 92, i64 noundef 0, ptr noundef nonnull %.0.val) #6
  %24 = icmp ne i64 %23, 0
  %25 = zext i1 %24 to i32
  %26 = call i32 @test_false(ptr noundef nonnull @.str, i32 noundef 384, ptr noundef nonnull @.str.63, i32 noundef %25) #6
  %.not8 = icmp eq i32 %26, 0
  br i1 %.not8, label %42, label %27

27:                                               ; preds = %21, %19
  %28 = load ptr, ptr %3, align 8, !tbaa !13
  %29 = load ptr, ptr %2, align 8, !tbaa !13
  %30 = call i32 @create_ssl_objects(ptr noundef %28, ptr noundef %29, ptr noundef nonnull %5, ptr noundef nonnull %4, ptr noundef null, ptr noundef null) #6
  %31 = icmp ne i32 %30, 0
  %32 = zext i1 %31 to i32
  %33 = call i32 @test_true(ptr noundef nonnull @.str, i32 noundef 388, ptr noundef nonnull @.str.64, i32 noundef %32) #6
  %.not9 = icmp eq i32 %33, 0
  br i1 %.not9, label %42, label %34

34:                                               ; preds = %27
  br i1 %20, label %41, label %35

35:                                               ; preds = %34
  %36 = load ptr, ptr %4, align 8, !tbaa !15
  %37 = call i64 @SSL_ctrl(ptr noundef %36, i32 noundef 92, i64 noundef 0, ptr noundef nonnull %.0.val) #6
  %38 = icmp ne i64 %37, 0
  %39 = zext i1 %38 to i32
  %40 = call i32 @test_false(ptr noundef nonnull @.str, i32 noundef 392, ptr noundef nonnull @.str.65, i32 noundef %39) #6
  %.not11 = icmp eq i32 %40, 0
  br i1 %.not11, label %42, label %41

41:                                               ; preds = %35, %34
  br label %42

42:                                               ; preds = %35, %27, %21, %10, %1, %7, %41
  %.0 = phi i32 [ 1, %41 ], [ 0, %35 ], [ 0, %27 ], [ 0, %21 ], [ 0, %10 ], [ 0, %7 ], [ 0, %1 ]
  %43 = load ptr, ptr %5, align 8, !tbaa !15
  call void @SSL_free(ptr noundef %43) #6
  %44 = load ptr, ptr %4, align 8, !tbaa !15
  call void @SSL_free(ptr noundef %44) #6
  %45 = load ptr, ptr %3, align 8, !tbaa !13
  call void @SSL_CTX_free(ptr noundef %45) #6
  %46 = load ptr, ptr %2, align 8, !tbaa !13
  call void @SSL_CTX_free(ptr noundef %46) #6
  call void @llvm.lifetime.end.p0(i64 8, ptr nonnull %5) #6
  call void @llvm.lifetime.end.p0(i64 8, ptr nonnull %4) #6
  call void @llvm.lifetime.end.p0(i64 8, ptr nonnull %3) #6
  call void @llvm.lifetime.end.p0(i64 8, ptr nonnull %2) #6
  ret i32 %.0
}